target datalayout = "e-m:e-p270:32:32-p271:32:32-p272:64:64-i64:64-i128:128-f80:128-n8:16:32:64-S128"
target triple = "x86_64-pc-linux-gnu"

%struct.ThreadData = type { ptr, ptr, ptr, i32, i32, float }

; Function Attrs: nounwind uwtable
define internal i32 @filter_inverse_dbl_noclip(ptr noundef %0, ptr noundef %1, i32 noundef %2, i32 noundef %3) #2 {
  %5 = alloca ptr, align 8
  %6 = alloca ptr, align 8
  %7 = alloca i32, align 4
  %8 = alloca i32, align 4
  %9 = alloca ptr, align 8
  %10 = alloca ptr, align 8
  %11 = alloca ptr, align 8
  %12 = alloca ptr, align 8
  %13 = alloca i32, align 4
  %14 = alloca i32, align 4
  %15 = alloca double, align 8
  %16 = alloca double, align 8
  %17 = alloca i32, align 4
  %18 = alloca i32, align 4
  %19 = alloca ptr, align 8
  %20 = alloca i32, align 4
  %21 = alloca i32, align 4
  %22 = alloca ptr, align 8
  %23 = alloca ptr, align 8
  %24 = alloca i32, align 4
  %25 = alloca double, align 8
  store ptr %0, ptr %5, align 8, !tbaa !4
  store ptr %1, ptr %6, align 8, !tbaa !58
  store i32 %2, ptr %7, align 4, !tbaa !61
  store i32 %3, ptr %8, align 4, !tbaa !61
  call void @llvm.lifetime.start.p0(i64 8, ptr %9) #7
  %26 = load ptr, ptr %6, align 8, !tbaa !58
  store ptr %26, ptr %9, align 8, !tbaa !62
  call void @llvm.lifetime.start.p0(i64 8, ptr %10) #7
  %27 = load ptr, ptr %9, align 8, !tbaa !62
  %28 = getelementptr inbounds nuw %struct.ThreadData, ptr %27, i32 0, i32 0
  %29 = load ptr, ptr %28, align 8, !tbaa !47
  store ptr %29, ptr %10, align 8, !tbaa !64
  call void @llvm.lifetime.start.p0(i64 8, ptr %11) #7
  %30 = load ptr, ptr %9, align 8, !tbaa !62
  %31 = getelementptr inbounds nuw %struct.ThreadData, ptr %30, i32 0, i32 1
  %32 = load ptr, ptr %31, align 8, !tbaa !50
  store ptr %32, ptr %11, align 8, !tbaa !64
  call void @llvm.lifetime.start.p0(i64 8, ptr %12) #7
  %33 = load ptr, ptr %9, align 8, !tbaa !62
  %34 = getelementptr inbounds nuw %struct.ThreadData, ptr %33, i32 0, i32 2
  %35 = load ptr, ptr %34, align 8, !tbaa !49
  store ptr %35, ptr %12, align 8, !tbaa !64
  call void @llvm.lifetime.start.p0(i64 4, ptr %13) #7
  %36 = load ptr, ptr %9, align 8, !tbaa !62
  %37 = getelementptr inbounds nuw %struct.ThreadData, ptr %36, i32 0, i32 3
  %38 = load i32, ptr %37, align 8, !tbaa !51
  store i32 %38, ptr %13, align 4, !tbaa !61
  call void @llvm.lifetime.start.p0(i64 4, ptr %14) #7
  %39 = load ptr, ptr %9, align 8, !tbaa !62
  %40 = getelementptr inbounds nuw %struct.ThreadData, ptr %39, i32 0, i32 4
  %41 = load i32, ptr %40, align 4, !tbaa !53
  store i32 %41, ptr %14, align 4, !tbaa !61
  call void @llvm.lifetime.start.p0(i64 8, ptr %15) #7
  %42 = load ptr, ptr %9, align 8, !tbaa !62
  %43 = getelementptr inbounds nuw %struct.ThreadData, ptr %42, i32 0, i32 5
  %44 = load float, ptr %43, align 8, !tbaa !56
  %45 = fpext nsz float %44 to double
  store double %45, ptr %15, align 8, !tbaa !85
  call void @llvm.lifetime.start.p0(i64 8, ptr %16) #7
  %46 = load double, ptr %15, align 8, !tbaa !85
  %47 = fneg nsz double %46
  %48 = fadd nsz double %47, 1.000000e+00
  %49 = fdiv nsz double 1.000000e+00, %48
  store double %49, ptr %16, align 8, !tbaa !85
  call void @llvm.lifetime.start.p0(i64 4, ptr %17) #7
  %50 = load i32, ptr %14, align 4, !tbaa !61
  %51 = load i32, ptr %7, align 4, !tbaa !61
  %52 = mul nsw i32 %50, %51
  %53 = load i32, ptr %8, align 4, !tbaa !61
  %54 = sdiv i32 %52, %53
  store i32 %54, ptr %17, align 4, !tbaa !61
  call void @llvm.lifetime.start.p0(i64 4, ptr %18) #7
  %55 = load i32, ptr %14, align 4, !tbaa !61
  %56 = load i32, ptr %7, align 4, !tbaa !61
  %57 = add nsw i32 %56, 1
  %58 = mul nsw i32 %55, %57
  %59 = load i32, ptr %8, align 4, !tbaa !61
  %60 = sdiv i32 %58, %59
  store i32 %60, ptr %18, align 4, !tbaa !61
  call void @llvm.lifetime.start.p0(i64 8, ptr %19) #7
  %61 = load ptr, ptr %11, align 8, !tbaa !64
  %62 = getelementptr inbounds ptr, ptr %61, i64 0
  %63 = load ptr, ptr %62, align 8, !tbaa !58
  store ptr %63, ptr %19, align 8, !tbaa !87
  call void @llvm.lifetime.start.p0(i64 4, ptr %20) #7
  %64 = load i32, ptr %17, align 4, !tbaa !61
  store i32 %64, ptr %20, align 4, !tbaa !61
  br label %65

65:                                               ; preds = %124, %4
  %66 = load i32, ptr %20, align 4, !tbaa !61
  %67 = load i32, ptr %18, align 4, !tbaa !61
  %68 = icmp slt i32 %66, %67
  br i1 %68, label %70, label %69

69:                                               ; preds = %65
  store i32 2, ptr %21, align 4
  call void @llvm.lifetime.end.p0(i64 4, ptr %20) #7
  br label %127

70:                                               ; preds = %65
  call void @llvm.lifetime.start.p0(i64 8, ptr %22) #7
  %71 = load ptr, ptr %12, align 8, !tbaa !64
  %72 = getelementptr inbounds ptr, ptr %71, i64 0
  %73 = load ptr, ptr %72, align 8, !tbaa !58
  store ptr %73, ptr %22, align 8, !tbaa !87
  call void @llvm.lifetime.start.p0(i64 8, ptr %23) #7
  %74 = load ptr, ptr %10, align 8, !tbaa !64
  %75 = getelementptr inbounds ptr, ptr %74, i64 0
  %76 = load ptr, ptr %75, align 8, !tbaa !58
  store ptr %76, ptr %23, align 8, !tbaa !87
  call void @llvm.lifetime.start.p0(i64 4, ptr %24) #7
  store i32 0, ptr %24, align 4, !tbaa !61
  br label %77

77:                                               ; preds = %120, %70
  %78 = load i32, ptr %24, align 4, !tbaa !61
  %79 = load i32, ptr %13, align 4, !tbaa !61
  %80 = icmp slt i32 %78, %79
  br i1 %80, label %82, label %81

81:                                               ; preds = %77
  store i32 5, ptr %21, align 4
  call void @llvm.lifetime.end.p0(i64 4, ptr %24) #7
  br label %123

82:                                               ; preds = %77
  call void @llvm.lifetime.start.p0(i64 8, ptr %25) #7
  %83 = load ptr, ptr %22, align 8, !tbaa !87
  %84 = load i32, ptr %20, align 4, !tbaa !61
  %85 = sext i32 %84 to i64
  %86 = getelementptr inbounds double, ptr %83, i64 %85
  %87 = load double, ptr %86, align 8, !tbaa !85
  store double %87, ptr %25, align 8, !tbaa !85
  %88 = load double, ptr %25, align 8, !tbaa !85
  %89 = load ptr, ptr %19, align 8, !tbaa !87
  %90 = load i32, ptr %20, align 4, !tbaa !61
  %91 = sext i32 %90 to i64
  %92 = getelementptr inbounds double, ptr %89, i64 %91
  %93 = load double, ptr %92, align 8, !tbaa !85
  %94 = load double, ptr %15, align 8, !tbaa !85
  %95 = fneg nsz double %93
  %96 = call nsz double @llvm.fmuladd.f64(double %95, double %94, double %88)
  %97 = load double, ptr %16, align 8, !tbaa !85
  %98 = fmul nsz double %96, %97
  %99 = load ptr, ptr %23, align 8, !tbaa !87
  %100 = load i32, ptr %20, align 4, !tbaa !61
  %101 = sext i32 %100 to i64
  %102 = getelementptr inbounds double, ptr %99, i64 %101
  store double %98, ptr %102, align 8, !tbaa !85
  %103 = load ptr, ptr %23, align 8, !tbaa !87
  %104 = load i32, ptr %20, align 4, !tbaa !61
  %105 = sext i32 %104 to i64
  %106 = getelementptr inbounds double, ptr %103, i64 %105
  %107 = load double, ptr %106, align 8, !tbaa !85
  %108 = load ptr, ptr %19, align 8, !tbaa !87
  %109 = load i32, ptr %20, align 4, !tbaa !61
  %110 = sext i32 %109 to i64
  %111 = getelementptr inbounds double, ptr %108, i64 %110
  store double %107, ptr %111, align 8, !tbaa !85
  %112 = load i32, ptr %14, align 4, !tbaa !61
  %113 = load ptr, ptr %23, align 8, !tbaa !87
  %114 = sext i32 %112 to i64
  %115 = getelementptr inbounds double, ptr %113, i64 %114
  store ptr %115, ptr %23, align 8, !tbaa !87
  %116 = load i32, ptr %14, align 4, !tbaa !61
  %117 = load ptr, ptr %22, align 8, !tbaa !87
  %118 = sext i32 %116 to i64
  %119 = getelementptr inbounds double, ptr %117, i64 %118
  store ptr %119, ptr %22, align 8, !tbaa !87
  call void @llvm.lifetime.end.p0(i64 8, ptr %25) #7
  br label %120

120:                                              ; preds = %82
  %121 = load i32, ptr %24, align 4, !tbaa !61
  %122 = add nsw i32 %121, 1
  store i32 %122, ptr %24, align 4, !tbaa !61
  br label %77, !llvm.loop !88

123:                                              ; preds = %81
  call void @llvm.lifetime.end.p0(i64 8, ptr %23) #7
  call void @llvm.lifetime.end.p0(i64 8, ptr %22) #7
  br label %124

124:                                              ; preds = %123
  %125 = load i32, ptr %20, align 4, !tbaa !61
  %126 = add nsw i32 %125, 1
  store i32 %126, ptr %20, align 4, !tbaa !61
  br label %65, !llvm.loop !89

127:                                              ; preds = %69
  call void @llvm.lifetime.end.p0(i64 8, ptr %19) #7
  store i32 1, ptr %21, align 4
  call void @llvm.lifetime.end.p0(i64 4, ptr %18) #7
  call void @llvm.lifetime.end.p0(i64 4, ptr %17) #7
  call void @llvm.lifetime.end.p0(i64 8, ptr %16) #7
  call void @llvm.lifetime.end.p0(i64 8, ptr %15) #7
  call void @llvm.lifetime.end.p0(i64 4, ptr %14) #7
  call void @llvm.lifetime.end.p0(i64 4, ptr %13) #7
  call void @llvm.lifetime.end.p0(i64 8, ptr %12) #7
  call void @llvm.lifetime.end.p0(i64 8, ptr %11) #7
  call void @llvm.lifetime.end.p0(i64 8, ptr %10) #7
  call void @llvm.lifetime.end.p0(i64 8, ptr %9) #7
  ret i32 0
}