; Function Attrs: nofree norecurse nosync nounwind memory(readwrite, inaccessiblemem: none) uwtable
define internal noundef i32 @filter_inverse_dbl_noclip(ptr readnone captures(none) %0, ptr noundef readonly captures(none) %1, i32 noundef %2, i32 noundef %3) #6 {
  %5 = getelementptr inbounds nuw i8, ptr %1, i64 8
  %6 = load ptr, ptr %5, align 8, !tbaa !47
  %7 = getelementptr inbounds nuw i8, ptr %1, i64 24
  %8 = load i32, ptr %7, align 8, !tbaa !48
  %9 = getelementptr inbounds nuw i8, ptr %1, i64 28
  %10 = load i32, ptr %9, align 4, !tbaa !50
  %11 = getelementptr inbounds nuw i8, ptr %1, i64 32
  %12 = load float, ptr %11, align 8, !tbaa !53
  %13 = fpext nsz float %12 to double
  %14 = fsub nsz double 1.000000e+00, %13
  %15 = fdiv nsz double 1.000000e+00, %14
  %16 = mul nsw i32 %10, %2
  %17 = sdiv i32 %16, %3
  %18 = add nsw i32 %2, 1
  %19 = mul nsw i32 %10, %18
  %20 = sdiv i32 %19, %3
  %21 = load ptr, ptr %6, align 8, !tbaa !55
  %22 = icmp slt i32 %17, %20
  br i1 %22, label %.lr.ph48, label %._crit_edge49

.lr.ph48:                                         ; preds = %4
  %23 = getelementptr inbounds nuw i8, ptr %1, i64 16
  %24 = load ptr, ptr %23, align 8, !tbaa !46
  %25 = load ptr, ptr %1, align 8, !tbaa !44
  %26 = load ptr, ptr %24, align 8, !tbaa !55
  %27 = load ptr, ptr %25, align 8, !tbaa !55
  %28 = icmp sgt i32 %8, 0
  %29 = sext i32 %10 to i64
  br i1 %28, label %.lr.ph.us.preheader, label %._crit_edge49

.lr.ph.us.preheader:                              ; preds = %.lr.ph48
  %30 = sext i32 %17 to i64
  %wide.trip.count = sext i32 %20 to i64
  br label %.lr.ph.us

.lr.ph.us:                                        ; preds = %.lr.ph.us.preheader, %._crit_edge.us
  %indvars.iv = phi i64 [ %30, %.lr.ph.us.preheader ], [ %indvars.iv.next, %._crit_edge.us ]
  %31 = getelementptr inbounds double, ptr %21, i64 %indvars.iv
  %.pre = load double, ptr %31, align 8, !tbaa !76
  br label %32

32:                                               ; preds = %.lr.ph.us, %32
  %33 = phi double [ %.pre, %.lr.ph.us ], [ %38, %32 ]
  %.04045.us = phi i32 [ 0, %.lr.ph.us ], [ %42, %32 ]
  %.04144.us = phi ptr [ %27, %.lr.ph.us ], [ %40, %32 ]
  %.04243.us = phi ptr [ %26, %.lr.ph.us ], [ %41, %32 ]
  %34 = getelementptr inbounds double, ptr %.04243.us, i64 %indvars.iv
  %35 = load double, ptr %34, align 8, !tbaa !76
  %36 = fneg nsz double %33
  %37 = tail call nsz double @llvm.fmuladd.f64(double %36, double %13, double %35)
  %38 = fmul nsz double %15, %37
  %39 = getelementptr inbounds double, ptr %.04144.us, i64 %indvars.iv
  store double %38, ptr %39, align 8, !tbaa !76
  store double %38, ptr %31, align 8, !tbaa !76
  %40 = getelementptr inbounds double, ptr %.04144.us, i64 %29
  %41 = getelementptr inbounds double, ptr %.04243.us, i64 %29
  %42 = add nuw nsw i32 %.04045.us, 1
  %exitcond.not = icmp eq i32 %42, %8
  br i1 %exitcond.not, label %._crit_edge.us, label %32, !llvm.loop !78

._crit_edge.us:                                   ; preds = %32
  %indvars.iv.next = add nsw i64 %indvars.iv, 1
  %exitcond52.not = icmp eq i64 %indvars.iv.next, %wide.trip.count
  br i1 %exitcond52.not, label %._crit_edge49, label %.lr.ph.us, !llvm.loop !79

._crit_edge49:                                    ; preds = %._crit_edge.us, %.lr.ph48, %4
  ret i32 0
}